; Function Attrs: mustprogress nounwind uwtable
define internal fastcc void @_ZL13printConstantRKN4llvm5APIntERNS_11raw_ostreamEb(ptr nocapture noundef nonnull readonly align 8 dereferenceable(12) %0, ptr noundef nonnull align 8 dereferenceable(48) %1, i1 noundef zeroext %2) unnamed_addr #0 {
  %4 = getelementptr inbounds nuw i8, ptr %0, i64 8
  %5 = load i32, ptr %4, align 8
  %6 = icmp ult i32 %5, 65
  br i1 %6, label %7, label %9

7:                                                ; preds = %3
  %.0.i = load i64, ptr %0, align 8
  %spec.select = select i1 %2, i64 0, i64 %.0.i
  %8 = tail call noundef nonnull align 8 dereferenceable(48) ptr @_ZN4llvm11raw_ostreamlsEy(ptr noundef nonnull align 8 dereferenceable(48) %1, i64 noundef %spec.select) #19
  br label %_ZN4llvm11raw_ostreamlsEPKc.exit21

9:                                                ; preds = %3
  %10 = getelementptr inbounds nuw i8, ptr %1, i64 24
  %11 = load ptr, ptr %10, align 8
  %12 = getelementptr inbounds nuw i8, ptr %1, i64 32
  %13 = load ptr, ptr %12, align 8
  %14 = icmp eq ptr %11, %13
  br i1 %14, label %15, label %17

15:                                               ; preds = %9
  %16 = tail call noundef nonnull align 8 dereferenceable(48) ptr @_ZN4llvm11raw_ostream5writeEPKcm(ptr noundef nonnull align 8 dereferenceable(48) %1, ptr noundef nonnull @.str.39, i64 noundef 1) #19
  br label %_ZN4llvm11raw_ostreamlsEPKc.exit

17:                                               ; preds = %9
  store i8 40, ptr %13, align 1
  %18 = load ptr, ptr %12, align 8
  %19 = getelementptr inbounds i8, ptr %18, i64 1
  store ptr %19, ptr %12, align 8
  br label %_ZN4llvm11raw_ostreamlsEPKc.exit

_ZN4llvm11raw_ostreamlsEPKc.exit:                 ; preds = %15, %17
  %20 = load i32, ptr %4, align 8
  %21 = zext i32 %20 to i64
  %22 = add nuw nsw i64 %21, 63
  %23 = lshr i64 %22, 6
  %24 = trunc nuw nsw i64 %23 to i32
  %.not23 = icmp eq i32 %20, 0
  br i1 %.not23, label %._crit_edge, label %.lr.ph

.lr.ph:                                           ; preds = %_ZN4llvm11raw_ostreamlsEPKc.exit
  br i1 %2, label %.lr.ph.split.us, label %.lr.ph.split

.lr.ph.split.us:                                  ; preds = %.lr.ph, %_ZN4llvm11raw_ostreamlsEPKc.exit17.us
  %.022.us = phi i32 [ %35, %_ZN4llvm11raw_ostreamlsEPKc.exit17.us ], [ 0, %.lr.ph ]
  %.not.us = icmp eq i32 %.022.us, 0
  br i1 %.not.us, label %_ZN4llvm11raw_ostreamlsEPKc.exit17.us, label %25

25:                                               ; preds = %.lr.ph.split.us
  %26 = load ptr, ptr %10, align 8
  %27 = load ptr, ptr %12, align 8
  %28 = icmp eq ptr %26, %27
  br i1 %28, label %32, label %29

29:                                               ; preds = %25
  store i8 44, ptr %27, align 1
  %30 = load ptr, ptr %12, align 8
  %31 = getelementptr inbounds i8, ptr %30, i64 1
  store ptr %31, ptr %12, align 8
  br label %_ZN4llvm11raw_ostreamlsEPKc.exit17.us

32:                                               ; preds = %25
  %33 = tail call noundef nonnull align 8 dereferenceable(48) ptr @_ZN4llvm11raw_ostream5writeEPKcm(ptr noundef nonnull align 8 dereferenceable(48) %1, ptr noundef nonnull @.str.35, i64 noundef 1) #19
  br label %_ZN4llvm11raw_ostreamlsEPKc.exit17.us

_ZN4llvm11raw_ostreamlsEPKc.exit17.us:            ; preds = %32, %29, %.lr.ph.split.us
  %34 = tail call noundef nonnull align 8 dereferenceable(48) ptr @_ZN4llvm11raw_ostreamlsEy(ptr noundef nonnull align 8 dereferenceable(48) %1, i64 noundef 0) #19
  %35 = add nuw nsw i32 %.022.us, 1
  %exitcond26.not = icmp eq i32 %35, %24
  br i1 %exitcond26.not, label %._crit_edge, label %.lr.ph.split.us, !llvm.loop !73

.lr.ph.split:                                     ; preds = %.lr.ph, %_ZN4llvm11raw_ostreamlsEPKc.exit17
  %indvars.iv = phi i64 [ %indvars.iv.next, %_ZN4llvm11raw_ostreamlsEPKc.exit17 ], [ 0, %.lr.ph ]
  %.not = icmp eq i64 %indvars.iv, 0
  br i1 %.not, label %_ZN4llvm11raw_ostreamlsEPKc.exit17, label %36

36:                                               ; preds = %.lr.ph.split
  %37 = load ptr, ptr %10, align 8
  %38 = load ptr, ptr %12, align 8
  %39 = icmp eq ptr %37, %38
  br i1 %39, label %40, label %42

40:                                               ; preds = %36
  %41 = tail call noundef nonnull align 8 dereferenceable(48) ptr @_ZN4llvm11raw_ostream5writeEPKcm(ptr noundef nonnull align 8 dereferenceable(48) %1, ptr noundef nonnull @.str.35, i64 noundef 1) #19
  br label %_ZN4llvm11raw_ostreamlsEPKc.exit17

42:                                               ; preds = %36
  store i8 44, ptr %38, align 1
  %43 = load ptr, ptr %12, align 8
  %44 = getelementptr inbounds i8, ptr %43, i64 1
  store ptr %44, ptr %12, align 8
  br label %_ZN4llvm11raw_ostreamlsEPKc.exit17

_ZN4llvm11raw_ostreamlsEPKc.exit17:               ; preds = %42, %40, %.lr.ph.split
  %45 = load i32, ptr %4, align 8
  %46 = icmp ult i32 %45, 65
  %47 = load ptr, ptr %0, align 8
  %.0.i18 = select i1 %46, ptr %0, ptr %47
  %48 = getelementptr inbounds i64, ptr %.0.i18, i64 %indvars.iv
  %49 = load i64, ptr %48, align 8
  %50 = tail call noundef nonnull align 8 dereferenceable(48) ptr @_ZN4llvm11raw_ostreamlsEy(ptr noundef nonnull align 8 dereferenceable(48) %1, i64 noundef %49) #19
  %indvars.iv.next = add nuw nsw i64 %indvars.iv, 1
  %exitcond.not = icmp eq i64 %indvars.iv.next, %23
  br i1 %exitcond.not, label %._crit_edge, label %.lr.ph.split, !llvm.loop !73

._crit_edge:                                      ; preds = %_ZN4llvm11raw_ostreamlsEPKc.exit17, %_ZN4llvm11raw_ostreamlsEPKc.exit17.us, %_ZN4llvm11raw_ostreamlsEPKc.exit
  %51 = load ptr, ptr %10, align 8
  %52 = load ptr, ptr %12, align 8
  %53 = icmp eq ptr %51, %52
  br i1 %53, label %54, label %56

54:                                               ; preds = %._crit_edge
  %55 = tail call noundef nonnull align 8 dereferenceable(48) ptr @_ZN4llvm11raw_ostream5writeEPKcm(ptr noundef nonnull align 8 dereferenceable(48) %1, ptr noundef nonnull @.str.40, i64 noundef 1) #19
  br label %_ZN4llvm11raw_ostreamlsEPKc.exit21

56:                                               ; preds = %._crit_edge
  store i8 41, ptr %52, align 1
  %57 = load ptr, ptr %12, align 8
  %58 = getelementptr inbounds i8, ptr %57, i64 1
  store ptr %58, ptr %12, align 8
  br label %_ZN4llvm11raw_ostreamlsEPKc.exit21

_ZN4llvm11raw_ostreamlsEPKc.exit21:               ; preds = %56, %54, %7
  ret void
}